(dp0
S'zach'
p1
ccopy_reg
_reconstructor
p2
(chuman
Human
p3
c__builtin__
object
p4
Ntp5
Rp6
(dp7
S'weapon'
p8
g2
(cweapon
Weapon
p9
g4
Ntp10
Rp11
(dp12
S'suffix'
p13
S''
p14
sS'critChance'
p15
I1
sS'damage'
p16
I1
sS'prefix'
p17
g14
sS'blockChance'
p18
I1
sS'name'
p19
S'fist'
p20
sbsS'level'
p21
I1
sS'health'
p22
I100
sS'experienceTotal'
p23
I0
sg19
g1
sbsS'chace'
p24
g2
(g3
g4
Ntp25
Rp26
(dp27
g8
g2
(g9
g4
Ntp28
Rp29
(dp30
g13
g14
sg15
I1
sg16
I1
sg17
g14
sg18
I1
sg19
S'fist'
p31
sbsg21
I1
sg22
I100
sg19
g24
sg23
I0
sbs.